target datalayout = "e-m:e-p270:32:32-p271:32:32-p272:64:64-i64:64-i128:128-f80:128-n8:16:32:64-S128"
target triple = "x86_64-pc-linux-gnu"

%struct.JSValue = type { %union.JSValueUnion, i64 }
%union.JSValueUnion = type { double }
%struct.JSRefCountHeader = type { i32 }

@os_poll_func = internal global ptr null, align 8

; Function Attrs: nounwind uwtable
define dso_local void @js_std_dump_error(ptr noundef %0) #0 {
  %2 = alloca ptr, align 8
  %3 = alloca %struct.JSValue, align 8
  %4 = alloca %struct.JSValue, align 8
  store ptr %0, ptr %2, align 8
  %5 = load ptr, ptr %2, align 8
  %6 = call { i64, i64 } @JS_GetException(ptr noundef %5)
  %7 = getelementptr inbounds { i64, i64 }, ptr %4, i32 0, i32 0
  %8 = extractvalue { i64, i64 } %6, 0
  store i64 %8, ptr %7, align 8
  %9 = getelementptr inbounds { i64, i64 }, ptr %4, i32 0, i32 1
  %10 = extractvalue { i64, i64 } %6, 1
  store i64 %10, ptr %9, align 8
  call void @llvm.memcpy.p0.p0.i64(ptr align 8 %3, ptr align 8 %4, i64 16, i1 false)
  %11 = load ptr, ptr %2, align 8
  %12 = getelementptr inbounds { i64, i64 }, ptr %3, i32 0, i32 0
  %13 = load i64, ptr %12, align 8
  %14 = getelementptr inbounds { i64, i64 }, ptr %3, i32 0, i32 1
  %15 = load i64, ptr %14, align 8
  call void @js_std_dump_error1(ptr noundef %11, i64 %13, i64 %15)
  %16 = load ptr, ptr %2, align 8
  %17 = getelementptr inbounds { i64, i64 }, ptr %3, i32 0, i32 0
  %18 = load i64, ptr %17, align 8
  %19 = getelementptr inbounds { i64, i64 }, ptr %3, i32 0, i32 1
  %20 = load i64, ptr %19, align 8
  call void @JS_FreeValue(ptr noundef %16, i64 %18, i64 %20)
  ret void
}

; Function Attrs: nounwind uwtable
define internal void @JS_FreeValue(ptr noundef %0, i64 %1, i64 %2) #0 {
  %4 = alloca %struct.JSValue, align 8
  %5 = alloca ptr, align 8
  %6 = alloca ptr, align 8
  %7 = getelementptr inbounds { i64, i64 }, ptr %4, i32 0, i32 0
  store i64 %1, ptr %7, align 8
  %8 = getelementptr inbounds { i64, i64 }, ptr %4, i32 0, i32 1
  store i64 %2, ptr %8, align 8
  store ptr %0, ptr %5, align 8
  %9 = getelementptr inbounds %struct.JSValue, ptr %4, i32 0, i32 1
  %10 = load i64, ptr %9, align 8
  %11 = trunc i64 %10 to i32
  %12 = icmp uge i32 %11, -11
  br i1 %12, label %13, label %28

13:                                               ; preds = %3
  %14 = getelementptr inbounds %struct.JSValue, ptr %4, i32 0, i32 0
  %15 = load ptr, ptr %14, align 8
  store ptr %15, ptr %6, align 8
  %16 = load ptr, ptr %6, align 8
  %17 = getelementptr inbounds %struct.JSRefCountHeader, ptr %16, i32 0, i32 0
  %18 = load i32, ptr %17, align 4
  %19 = add i32 %18, -1
  store i32 %19, ptr %17, align 4
  %20 = icmp sle i32 %19, 0
  br i1 %20, label %21, label %27

21:                                               ; preds = %13
  %22 = load ptr, ptr %5, align 8
  %23 = getelementptr inbounds { i64, i64 }, ptr %4, i32 0, i32 0
  %24 = load i64, ptr %23, align 8
  %25 = getelementptr inbounds { i64, i64 }, ptr %4, i32 0, i32 1
  %26 = load i64, ptr %25, align 8
  call void @__JS_FreeValue(ptr noundef %22, i64 %24, i64 %26)
  br label %27

27:                                               ; preds = %21, %13
  br label %28

28:                                               ; preds = %27, %3
  ret void
}

; Function Attrs: nounwind uwtable
define dso_local { i64, i64 } @js_std_await(ptr noundef %0, i64 %1, i64 %2) #0 {
  %4 = alloca %struct.JSValue, align 8
  %5 = alloca %struct.JSValue, align 8
  %6 = alloca ptr, align 8
  %7 = alloca i32, align 4
  %8 = alloca %struct.JSValue, align 8
  %9 = alloca %struct.JSValue, align 8
  %10 = alloca %struct.JSValue, align 8
  %11 = alloca ptr, align 8
  %12 = alloca i32, align 4
  %13 = getelementptr inbounds { i64, i64 }, ptr %5, i32 0, i32 0
  store i64 %1, ptr %13, align 8
  %14 = getelementptr inbounds { i64, i64 }, ptr %5, i32 0, i32 1
  store i64 %2, ptr %14, align 8
  store ptr %0, ptr %6, align 8
  br label %15

15:                                               ; preds = %91, %3
  %16 = load ptr, ptr %6, align 8
  %17 = getelementptr inbounds { i64, i64 }, ptr %5, i32 0, i32 0
  %18 = load i64, ptr %17, align 8
  %19 = getelementptr inbounds { i64, i64 }, ptr %5, i32 0, i32 1
  %20 = load i64, ptr %19, align 8
  %21 = call i32 @JS_PromiseState(ptr noundef %16, i64 %18, i64 %20)
  store i32 %21, ptr %7, align 4
  %22 = load i32, ptr %7, align 4
  %23 = icmp eq i32 %22, 1
  br i1 %23, label %24, label %40

24:                                               ; preds = %15
  %25 = load ptr, ptr %6, align 8
  %26 = getelementptr inbounds { i64, i64 }, ptr %5, i32 0, i32 0
  %27 = load i64, ptr %26, align 8
  %28 = getelementptr inbounds { i64, i64 }, ptr %5, i32 0, i32 1
  %29 = load i64, ptr %28, align 8
  %30 = call { i64, i64 } @JS_PromiseResult(ptr noundef %25, i64 %27, i64 %29)
  %31 = getelementptr inbounds { i64, i64 }, ptr %8, i32 0, i32 0
  %32 = extractvalue { i64, i64 } %30, 0
  store i64 %32, ptr %31, align 8
  %33 = getelementptr inbounds { i64, i64 }, ptr %8, i32 0, i32 1
  %34 = extractvalue { i64, i64 } %30, 1
  store i64 %34, ptr %33, align 8
  call void @llvm.memcpy.p0.p0.i64(ptr align 8 %4, ptr align 8 %8, i64 16, i1 false)
  %35 = load ptr, ptr %6, align 8
  %36 = getelementptr inbounds { i64, i64 }, ptr %5, i32 0, i32 0
  %37 = load i64, ptr %36, align 8
  %38 = getelementptr inbounds { i64, i64 }, ptr %5, i32 0, i32 1
  %39 = load i64, ptr %38, align 8
  call void @JS_FreeValue(ptr noundef %35, i64 %37, i64 %39)
  br label %92

40:                                               ; preds = %15
  %41 = load i32, ptr %7, align 4
  %42 = icmp eq i32 %41, 2
  br i1 %42, label %43, label %69

43:                                               ; preds = %40
  %44 = load ptr, ptr %6, align 8
  %45 = load ptr, ptr %6, align 8
  %46 = getelementptr inbounds { i64, i64 }, ptr %5, i32 0, i32 0
  %47 = load i64, ptr %46, align 8
  %48 = getelementptr inbounds { i64, i64 }, ptr %5, i32 0, i32 1
  %49 = load i64, ptr %48, align 8
  %50 = call { i64, i64 } @JS_PromiseResult(ptr noundef %45, i64 %47, i64 %49)
  %51 = getelementptr inbounds { i64, i64 }, ptr %10, i32 0, i32 0
  %52 = extractvalue { i64, i64 } %50, 0
  store i64 %52, ptr %51, align 8
  %53 = getelementptr inbounds { i64, i64 }, ptr %10, i32 0, i32 1
  %54 = extractvalue { i64, i64 } %50, 1
  store i64 %54, ptr %53, align 8
  %55 = getelementptr inbounds { i64, i64 }, ptr %10, i32 0, i32 0
  %56 = load i64, ptr %55, align 8
  %57 = getelementptr inbounds { i64, i64 }, ptr %10, i32 0, i32 1
  %58 = load i64, ptr %57, align 8
  %59 = call { i64, i64 } @JS_Throw(ptr noundef %44, i64 %56, i64 %58)
  %60 = getelementptr inbounds { i64, i64 }, ptr %9, i32 0, i32 0
  %61 = extractvalue { i64, i64 } %59, 0
  store i64 %61, ptr %60, align 8
  %62 = getelementptr inbounds { i64, i64 }, ptr %9, i32 0, i32 1
  %63 = extractvalue { i64, i64 } %59, 1
  store i64 %63, ptr %62, align 8
  call void @llvm.memcpy.p0.p0.i64(ptr align 8 %4, ptr align 8 %9, i64 16, i1 false)
  %64 = load ptr, ptr %6, align 8
  %65 = getelementptr inbounds { i64, i64 }, ptr %5, i32 0, i32 0
  %66 = load i64, ptr %65, align 8
  %67 = getelementptr inbounds { i64, i64 }, ptr %5, i32 0, i32 1
  %68 = load i64, ptr %67, align 8
  call void @JS_FreeValue(ptr noundef %64, i64 %66, i64 %68)
  br label %92

69:                                               ; preds = %40
  %70 = load i32, ptr %7, align 4
  %71 = icmp eq i32 %70, 0
  br i1 %71, label %72, label %88

72:                                               ; preds = %69
  %73 = load ptr, ptr %6, align 8
  %74 = call ptr @JS_GetRuntime(ptr noundef %73)
  %75 = call i32 @JS_ExecutePendingJob(ptr noundef %74, ptr noundef %11)
  store i32 %75, ptr %12, align 4
  %76 = load i32, ptr %12, align 4
  %77 = icmp slt i32 %76, 0
  br i1 %77, label %78, label %80

78:                                               ; preds = %72
  %79 = load ptr, ptr %11, align 8
  call void @js_std_dump_error(ptr noundef %79)
  br label %80

80:                                               ; preds = %78, %72
  %81 = load ptr, ptr @os_poll_func, align 8
  %82 = icmp ne ptr %81, null
  br i1 %82, label %83, label %87

83:                                               ; preds = %80
  %84 = load ptr, ptr @os_poll_func, align 8
  %85 = load ptr, ptr %6, align 8
  %86 = call i32 %84(ptr noundef %85)
  br label %87

87:                                               ; preds = %83, %80
  br label %89

88:                                               ; preds = %69
  call void @llvm.memcpy.p0.p0.i64(ptr align 8 %4, ptr align 8 %5, i64 16, i1 false)
  br label %92

89:                                               ; preds = %87
  br label %90

90:                                               ; preds = %89
  br label %91

91:                                               ; preds = %90
  br label %15

92:                                               ; preds = %88, %43, %24
  %93 = load { i64, i64 }, ptr %4, align 8
  ret { i64, i64 } %93
}