; Function Attrs: nounwind uwtable
define dso_local { i64, i64 } @js_std_await(ptr noundef %0, i64 %1, i64 %2) local_unnamed_addr #0 {
  %4 = alloca ptr, align 8
  br label %5

5:                                                ; preds = %.backedge, %3
  %6 = call i32 @JS_PromiseState(ptr noundef %0, i64 %1, i64 %2) #29
  switch i32 %6, label %JS_FreeValue.exit [
    i32 1, label %7
    i32 2, label %18
    i32 0, label %32
  ]

7:                                                ; preds = %5
  %8 = call { i64, i64 } @JS_PromiseResult(ptr noundef %0, i64 %1, i64 %2) #29
  %9 = extractvalue { i64, i64 } %8, 0
  %10 = extractvalue { i64, i64 } %8, 1
  %11 = trunc i64 %2 to i32
  %12 = icmp ugt i32 %11, -12
  br i1 %12, label %13, label %JS_FreeValue.exit

13:                                               ; preds = %7
  %14 = inttoptr i64 %1 to ptr
  %15 = load i32, ptr %14, align 4
  %16 = add i32 %15, -1
  store i32 %16, ptr %14, align 4
  %17 = icmp slt i32 %16, 1
  br i1 %17, label %JS_FreeValue.exit.sink.split, label %JS_FreeValue.exit

18:                                               ; preds = %5
  %19 = call { i64, i64 } @JS_PromiseResult(ptr noundef %0, i64 %1, i64 %2) #29
  %20 = extractvalue { i64, i64 } %19, 0
  %21 = extractvalue { i64, i64 } %19, 1
  %22 = call { i64, i64 } @JS_Throw(ptr noundef %0, i64 %20, i64 %21) #29
  %23 = extractvalue { i64, i64 } %22, 0
  %24 = extractvalue { i64, i64 } %22, 1
  %25 = trunc i64 %2 to i32
  %26 = icmp ugt i32 %25, -12
  br i1 %26, label %27, label %JS_FreeValue.exit

27:                                               ; preds = %18
  %28 = inttoptr i64 %1 to ptr
  %29 = load i32, ptr %28, align 4
  %30 = add i32 %29, -1
  store i32 %30, ptr %28, align 4
  %31 = icmp slt i32 %30, 1
  br i1 %31, label %JS_FreeValue.exit.sink.split, label %JS_FreeValue.exit

32:                                               ; preds = %5
  %33 = call ptr @JS_GetRuntime(ptr noundef %0) #29
  %34 = call i32 @JS_ExecutePendingJob(ptr noundef %33, ptr noundef nonnull %4) #29
  %35 = icmp slt i32 %34, 0
  br i1 %35, label %36, label %js_std_dump_error.exit

36:                                               ; preds = %32
  %37 = load ptr, ptr %4, align 8
  %38 = call { i64, i64 } @JS_GetException(ptr noundef %37) #29
  %39 = extractvalue { i64, i64 } %38, 0
  %40 = extractvalue { i64, i64 } %38, 1
  call fastcc void @js_std_dump_error1(ptr noundef %37, i64 %39, i64 %40)
  %41 = trunc i64 %40 to i32
  %42 = icmp ugt i32 %41, -12
  br i1 %42, label %43, label %js_std_dump_error.exit

43:                                               ; preds = %36
  %44 = inttoptr i64 %39 to ptr
  %45 = load i32, ptr %44, align 4
  %46 = add i32 %45, -1
  store i32 %46, ptr %44, align 4
  %47 = icmp slt i32 %46, 1
  br i1 %47, label %48, label %js_std_dump_error.exit

48:                                               ; preds = %43
  call void @__JS_FreeValue(ptr noundef %37, i64 %39, i64 %40) #29
  br label %js_std_dump_error.exit

js_std_dump_error.exit:                           ; preds = %48, %43, %36, %32
  %49 = load ptr, ptr @os_poll_func, align 8
  %.not = icmp eq ptr %49, null
  br i1 %.not, label %.backedge, label %50

.backedge:                                        ; preds = %js_std_dump_error.exit, %50
  br label %5

50:                                               ; preds = %js_std_dump_error.exit
  %51 = call i32 @js_os_poll(ptr noundef %0), !callees !17
  br label %.backedge

JS_FreeValue.exit.sink.split:                     ; preds = %27, %13
  %.sroa.024.0.ph = phi i64 [ %9, %13 ], [ %23, %27 ]
  %.sroa.4.0.ph = phi i64 [ %10, %13 ], [ %24, %27 ]
  call void @__JS_FreeValue(ptr noundef %0, i64 %1, i64 %2) #29
  br label %JS_FreeValue.exit

JS_FreeValue.exit:                                ; preds = %5, %JS_FreeValue.exit.sink.split, %27, %18, %13, %7
  %.sroa.024.0 = phi i64 [ %9, %7 ], [ %9, %13 ], [ %23, %18 ], [ %23, %27 ], [ %.sroa.024.0.ph, %JS_FreeValue.exit.sink.split ], [ %1, %5 ]
  %.sroa.4.0 = phi i64 [ %10, %7 ], [ %10, %13 ], [ %24, %18 ], [ %24, %27 ], [ %.sroa.4.0.ph, %JS_FreeValue.exit.sink.split ], [ %2, %5 ]
  %.fca.0.insert = insertvalue { i64, i64 } poison, i64 %.sroa.024.0, 0
  %.fca.1.insert = insertvalue { i64, i64 } %.fca.0.insert, i64 %.sroa.4.0, 1
  ret { i64, i64 } %.fca.1.insert
}